target datalayout = "e-m:e-p270:32:32-p271:32:32-p272:64:64-i64:64-i128:128-f80:128-n8:16:32:64-S128"
target triple = "x86_64-pc-linux-gnu"

%struct.expert_field = type { i32, i32 }

@hf_ctdb_num_nodes = internal global i32 0, align 4
@hf_ctdb_vnn = internal global i32 0, align 4
@hf_ctdb_node_flags = internal global i32 0, align 4
@hf_ctdb_node_ip = internal global i32 0, align 4
@ei_ctdb_too_many_nodes = internal global %struct.expert_field zeroinitializer, align 4
@.str.256 = private unnamed_addr constant [42 x i8] c"Too many nodes (%u). Stopping dissection.\00", align 1

; Function Attrs: nounwind uwtable
define internal i32 @dissect_control_get_nodemap_reply(ptr noundef %0, ptr noundef %1, ptr noundef %2, i32 noundef %3, i32 noundef %4, i32 noundef %5) #0 {
  %7 = alloca i32, align 4
  %8 = alloca ptr, align 8
  %9 = alloca ptr, align 8
  %10 = alloca ptr, align 8
  %11 = alloca i32, align 4
  %12 = alloca i32, align 4
  %13 = alloca i32, align 4
  %14 = alloca i32, align 4
  %15 = alloca ptr, align 8
  store ptr %0, ptr %8, align 8
  store ptr %1, ptr %9, align 8
  store ptr %2, ptr %10, align 8
  store i32 %3, ptr %11, align 4
  store i32 %4, ptr %12, align 4
  store i32 %5, ptr %13, align 4
  %16 = load ptr, ptr %9, align 8
  %17 = load i32, ptr @hf_ctdb_num_nodes, align 4
  %18 = load ptr, ptr %10, align 8
  %19 = load i32, ptr %11, align 4
  %20 = load i32, ptr %13, align 4
  %21 = call ptr @proto_tree_add_item(ptr noundef %16, i32 noundef %17, ptr noundef %18, i32 noundef %19, i32 noundef 4, i32 noundef %20)
  store ptr %21, ptr %15, align 8
  %22 = load i32, ptr %13, align 4
  %23 = icmp ne i32 %22, 0
  br i1 %23, label %24, label %28

24:                                               ; preds = %6
  %25 = load ptr, ptr %10, align 8
  %26 = load i32, ptr %11, align 4
  %27 = call i32 @tvb_get_letohl(ptr noundef %25, i32 noundef %26)
  store i32 %27, ptr %14, align 4
  br label %32

28:                                               ; preds = %6
  %29 = load ptr, ptr %10, align 8
  %30 = load i32, ptr %11, align 4
  %31 = call i32 @tvb_get_ntohl(ptr noundef %29, i32 noundef %30)
  store i32 %31, ptr %14, align 4
  br label %32

32:                                               ; preds = %28, %24
  %33 = load i32, ptr %11, align 4
  %34 = add i32 %33, 4
  store i32 %34, ptr %11, align 4
  %35 = load i32, ptr %14, align 4
  %36 = icmp ugt i32 %35, 500
  br i1 %36, label %37, label %43

37:                                               ; preds = %32
  %38 = load ptr, ptr %8, align 8
  %39 = load ptr, ptr %15, align 8
  %40 = load i32, ptr %14, align 4
  %41 = call ptr (ptr, ptr, ptr, ptr, ...) @expert_add_info_format(ptr noundef %38, ptr noundef %39, ptr noundef @ei_ctdb_too_many_nodes, ptr noundef @.str.256, i32 noundef %40)
  %42 = load i32, ptr %11, align 4
  store i32 %42, ptr %7, align 4
  br label %75

43:                                               ; preds = %32
  br label %44

44:                                               ; preds = %48, %43
  %45 = load i32, ptr %14, align 4
  %46 = add i32 %45, -1
  store i32 %46, ptr %14, align 4
  %47 = icmp ne i32 %45, 0
  br i1 %47, label %48, label %73

48:                                               ; preds = %44
  %49 = load ptr, ptr %9, align 8
  %50 = load i32, ptr @hf_ctdb_vnn, align 4
  %51 = load ptr, ptr %10, align 8
  %52 = load i32, ptr %11, align 4
  %53 = load i32, ptr %13, align 4
  %54 = call ptr @proto_tree_add_item(ptr noundef %49, i32 noundef %50, ptr noundef %51, i32 noundef %52, i32 noundef 4, i32 noundef %53)
  %55 = load i32, ptr %11, align 4
  %56 = add i32 %55, 4
  store i32 %56, ptr %11, align 4
  %57 = load ptr, ptr %9, align 8
  %58 = load i32, ptr @hf_ctdb_node_flags, align 4
  %59 = load ptr, ptr %10, align 8
  %60 = load i32, ptr %11, align 4
  %61 = load i32, ptr %13, align 4
  %62 = call ptr @proto_tree_add_item(ptr noundef %57, i32 noundef %58, ptr noundef %59, i32 noundef %60, i32 noundef 4, i32 noundef %61)
  %63 = load i32, ptr %11, align 4
  %64 = add i32 %63, 4
  store i32 %64, ptr %11, align 4
  %65 = load ptr, ptr %9, align 8
  %66 = load i32, ptr @hf_ctdb_node_ip, align 4
  %67 = load ptr, ptr %10, align 8
  %68 = load i32, ptr %11, align 4
  %69 = add i32 %68, 4
  %70 = call ptr @proto_tree_add_item(ptr noundef %65, i32 noundef %66, ptr noundef %67, i32 noundef %69, i32 noundef 4, i32 noundef 0)
  %71 = load i32, ptr %11, align 4
  %72 = add i32 %71, 16
  store i32 %72, ptr %11, align 4
  br label %44, !llvm.loop !7

73:                                               ; preds = %44
  %74 = load i32, ptr %11, align 4
  store i32 %74, ptr %7, align 4
  br label %75

75:                                               ; preds = %73, %37
  %76 = load i32, ptr %7, align 4
  ret i32 %76
}