; Function Attrs: nounwind uwtable
define internal noundef i32 @dissect_control_get_nodemap_reply(ptr noundef %0, ptr noundef %1, ptr noundef %2, i32 noundef %3, i32 %4, i32 noundef %5) #0 {
  %7 = load i32, ptr @hf_ctdb_num_nodes, align 4
  %8 = tail call ptr @proto_tree_add_item(ptr noundef %1, i32 noundef %7, ptr noundef %2, i32 noundef %3, i32 noundef 4, i32 noundef %5) #4
  %.not = icmp eq i32 %5, 0
  br i1 %.not, label %11, label %9

9:                                                ; preds = %6
  %10 = tail call i32 @tvb_get_letohl(ptr noundef %2, i32 noundef %3) #4
  br label %13

11:                                               ; preds = %6
  %12 = tail call i32 @tvb_get_ntohl(ptr noundef %2, i32 noundef %3) #4
  br label %13

13:                                               ; preds = %11, %9
  %.031 = phi i32 [ %10, %9 ], [ %12, %11 ]
  %14 = add i32 %3, 4
  %15 = icmp ugt i32 %.031, 500
  br i1 %15, label %16, label %.preheader

.preheader:                                       ; preds = %13
  %.not3334 = icmp eq i32 %.031, 0
  br i1 %.not3334, label %.loopexit, label %.lr.ph

16:                                               ; preds = %13
  %17 = tail call ptr (ptr, ptr, ptr, ptr, ...) @expert_add_info_format(ptr noundef %0, ptr noundef %8, ptr noundef nonnull @ei_ctdb_too_many_nodes, ptr noundef nonnull @.str.256, i32 noundef %.031) #4
  br label %.loopexit

.lr.ph:                                           ; preds = %.preheader, %.lr.ph
  %.136 = phi i32 [ %18, %.lr.ph ], [ %.031, %.preheader ]
  %.03235 = phi i32 [ %27, %.lr.ph ], [ %14, %.preheader ]
  %18 = add i32 %.136, -1
  %19 = load i32, ptr @hf_ctdb_vnn, align 4
  %20 = tail call ptr @proto_tree_add_item(ptr noundef %1, i32 noundef %19, ptr noundef %2, i32 noundef %.03235, i32 noundef 4, i32 noundef %5) #4
  %21 = add i32 %.03235, 4
  %22 = load i32, ptr @hf_ctdb_node_flags, align 4
  %23 = tail call ptr @proto_tree_add_item(ptr noundef %1, i32 noundef %22, ptr noundef %2, i32 noundef %21, i32 noundef 4, i32 noundef %5) #4
  %24 = load i32, ptr @hf_ctdb_node_ip, align 4
  %25 = add i32 %.03235, 12
  %26 = tail call ptr @proto_tree_add_item(ptr noundef %1, i32 noundef %24, ptr noundef %2, i32 noundef %25, i32 noundef 4, i32 noundef 0) #4
  %27 = add i32 %.03235, 24
  %.not33 = icmp eq i32 %18, 0
  br i1 %.not33, label %.loopexit, label %.lr.ph, !llvm.loop !7

.loopexit:                                        ; preds = %.lr.ph, %.preheader, %16
  %.0 = phi i32 [ %14, %16 ], [ %14, %.preheader ], [ %27, %.lr.ph ]
  ret i32 %.0
}